; Function Attrs: nounwind uwtable
define ptr @l___private_Lean_Data_FuzzyMatching_0__Lean_FuzzyMatching_fuzzyMatchCore_getIdx(ptr noundef readonly captures(none) %0, ptr noundef %1, ptr noundef %2) local_unnamed_addr #0 {
  %4 = getelementptr i8, ptr %0, i64 24
  %.val = load i64, ptr %4, align 8, !tbaa !13
  %5 = ptrtoint ptr %1 to i64
  %6 = and i64 %5, 1
  %.not = icmp eq i64 %6, 0
  br i1 %.not, label %.critedge.i, label %7, !prof !4

7:                                                ; preds = %3
  %8 = lshr i64 %5, 1
  %9 = icmp ult ptr %1, inttoptr (i64 2 to ptr)
  br i1 %9, label %lean_dec.exit9, label %10

10:                                               ; preds = %7
  %11 = and i64 %.val, 9223372036854775807
  %mul.i = tail call { i64, i1 } @llvm.umul.with.overflow.i64(i64 %8, i64 %11)
  %mul.val.i = extractvalue { i64, i1 } %mul.i, 0
  %12 = icmp sgt i64 %mul.val.i, -1
  br i1 %12, label %13, label %18

13:                                               ; preds = %10
  %mul.ov.i = extractvalue { i64, i1 } %mul.i, 1
  br i1 %mul.ov.i, label %18, label %14

14:                                               ; preds = %13
  %15 = shl nuw i64 %mul.val.i, 1
  %16 = or disjoint i64 %15, 1
  %17 = inttoptr i64 %16 to ptr
  br label %lean_dec.exit9

18:                                               ; preds = %13, %10
  %19 = tail call ptr @lean_nat_overflow_mul(i64 noundef %8, i64 noundef %11) #7
  br label %lean_dec.exit9

.critedge.i:                                      ; preds = %3
  %20 = shl i64 %.val, 1
  %21 = or disjoint i64 %20, 1
  %22 = inttoptr i64 %21 to ptr
  %23 = tail call ptr @lean_nat_big_mul(ptr noundef %1, ptr noundef nonnull %22) #7
  br label %lean_dec.exit9

lean_dec.exit9:                                   ; preds = %.critedge.i, %18, %14, %7
  %.2.i = phi ptr [ %23, %.critedge.i ], [ %1, %7 ], [ %17, %14 ], [ %19, %18 ]
  %24 = ptrtoint ptr %.2.i to i64
  %25 = and i64 %24, 1
  %.not16 = icmp eq i64 %25, 0
  br i1 %.not16, label %41, label %26, !prof !4

26:                                               ; preds = %lean_dec.exit9
  %27 = ptrtoint ptr %2 to i64
  %28 = and i64 %27, 1
  %.not17 = icmp eq i64 %28, 0
  br i1 %.not17, label %lean_nat_add.exit.thread15, label %30, !prof !4

lean_nat_add.exit.thread15:                       ; preds = %26
  %29 = tail call ptr @lean_nat_big_add(ptr noundef %.2.i, ptr noundef %2) #7
  br label %lean_dec.exit

30:                                               ; preds = %26
  %31 = lshr i64 %24, 1
  %32 = lshr i64 %27, 1
  %33 = add nuw i64 %31, %32
  %34 = icmp sgt i64 %33, -1
  br i1 %34, label %35, label %39, !prof !10

35:                                               ; preds = %30
  %36 = shl nuw i64 %33, 1
  %37 = or disjoint i64 %36, 1
  %38 = inttoptr i64 %37 to ptr
  br label %lean_dec.exit

39:                                               ; preds = %30
  %40 = tail call ptr @lean_big_usize_to_nat(i64 noundef range(i64 0, -1) %33) #7
  br label %lean_dec.exit

41:                                               ; preds = %lean_dec.exit9
  %42 = tail call ptr @lean_nat_big_add(ptr noundef %.2.i, ptr noundef %2) #7
  %43 = load i32, ptr %.2.i, align 4, !tbaa !5
  %44 = icmp sgt i32 %43, 1
  br i1 %44, label %45, label %47, !prof !10

45:                                               ; preds = %41
  %46 = add nsw i32 %43, -1
  store i32 %46, ptr %.2.i, align 4, !tbaa !5
  br label %lean_dec.exit

47:                                               ; preds = %41
  %.not.i10 = icmp eq i32 %43, 0
  br i1 %.not.i10, label %lean_dec.exit, label %48

48:                                               ; preds = %47
  tail call void @lean_dec_ref_cold(ptr noundef nonnull %.2.i) #7
  br label %lean_dec.exit

lean_dec.exit:                                    ; preds = %35, %39, %48, %47, %45, %lean_nat_add.exit.thread15
  %.0.i14 = phi ptr [ %29, %lean_nat_add.exit.thread15 ], [ %42, %45 ], [ %42, %47 ], [ %42, %48 ], [ %40, %39 ], [ %38, %35 ]
  ret ptr %.0.i14
}